; Function Attrs: nounwind uwtable
define internal fastcc void @jmp_patch(ptr noundef captures(none) %0, i32 noundef %1, i32 noundef %2) unnamed_addr #0 {
  %4 = getelementptr inbounds nuw i8, ptr %0, i64 40
  %5 = load i32, ptr %4, align 8, !tbaa !51
  %6 = icmp eq i32 %2, %5
  br i1 %6, label %7, label %36

7:                                                ; preds = %3
  %8 = getelementptr inbounds nuw i8, ptr %0, i64 44
  store i32 %2, ptr %8, align 4, !tbaa !52
  %9 = getelementptr inbounds nuw i8, ptr %0, i64 48
  %10 = icmp eq i32 %1, -1
  br i1 %10, label %jmp_tohere.exit, label %11

11:                                               ; preds = %7
  %12 = load i32, ptr %9, align 4, !tbaa !82
  %13 = icmp eq i32 %12, -1
  br i1 %13, label %15, label %.preheader.i.i

.preheader.i.i:                                   ; preds = %11
  %14 = getelementptr i8, ptr %0, i64 72
  %.val.i.i = load ptr, ptr %14, align 8, !tbaa !67
  br label %16

15:                                               ; preds = %11
  store i32 %1, ptr %9, align 4, !tbaa !82
  br label %jmp_tohere.exit

16:                                               ; preds = %16, %.preheader.i.i
  %.0.i.i = phi i32 [ %26, %16 ], [ %12, %.preheader.i.i ]
  %17 = zext i32 %.0.i.i to i64
  %18 = getelementptr inbounds nuw %struct.BCInsLine, ptr %.val.i.i, i64 %17
  %19 = load i32, ptr %18, align 4, !tbaa !68
  %20 = lshr i32 %19, 16
  %21 = zext nneg i32 %20 to i64
  %22 = add nsw i64 %21, -32768
  %23 = icmp eq i64 %22, -1
  %24 = add nuw nsw i64 %17, 1
  %25 = add nsw i64 %24, %22
  %26 = trunc i64 %25 to i32
  %.not13.i.i = icmp eq i32 %26, -1
  %.not.i.i = select i1 %23, i1 true, i1 %.not13.i.i
  br i1 %.not.i.i, label %27, label %16, !llvm.loop !84

27:                                               ; preds = %16
  %reass.sub.i.i.i = sub i32 %1, %.0.i.i
  %28 = add i32 %reass.sub.i.i.i, 32767
  %29 = icmp ugt i32 %28, 65535
  br i1 %29, label %30, label %jmp_patchins.exit.i.i

30:                                               ; preds = %27
  %31 = getelementptr inbounds nuw i8, ptr %0, i64 8
  %32 = load ptr, ptr %31, align 8, !tbaa !47
  tail call fastcc void @err_syntax(ptr noundef %32, i32 noundef 2399) #13
  unreachable

jmp_patchins.exit.i.i:                            ; preds = %27
  %33 = getelementptr inbounds nuw %struct.BCInsLine, ptr %.val.i.i, i64 %17
  %34 = trunc nuw i32 %28 to i16
  %35 = getelementptr inbounds nuw i8, ptr %33, i64 2
  store i16 %34, ptr %35, align 2, !tbaa !70
  br label %jmp_tohere.exit

36:                                               ; preds = %3
  %.not19.i = icmp eq i32 %1, -1
  br i1 %.not19.i, label %jmp_tohere.exit, label %.lr.ph.i

.lr.ph.i:                                         ; preds = %36
  %37 = getelementptr i8, ptr %0, i64 72
  %.val.pre.i = load ptr, ptr %37, align 8, !tbaa !67
  br label %38

38:                                               ; preds = %jmp_patchins.exit16.i, %.lr.ph.i
  %39 = phi ptr [ %.val.pre.i, %.lr.ph.i ], [ %77, %jmp_patchins.exit16.i ]
  %.020.i = phi i32 [ %1, %.lr.ph.i ], [ %49, %jmp_patchins.exit16.i ]
  %40 = zext i32 %.020.i to i64
  %41 = getelementptr inbounds nuw %struct.BCInsLine, ptr %39, i64 %40
  %42 = load i32, ptr %41, align 4, !tbaa !68
  %43 = lshr i32 %42, 16
  %44 = zext nneg i32 %43 to i64
  %45 = add nsw i64 %44, -32768
  %46 = icmp eq i64 %45, -1
  %47 = add nuw nsw i64 %40, 1
  %48 = add nsw i64 %47, %45
  %49 = trunc i64 %48 to i32
  %50 = tail call i32 @llvm.usub.sat.i32(i32 range(i32 0, -1) %.020.i, i32 1)
  %51 = zext i32 %50 to i64
  %52 = getelementptr inbounds nuw %struct.BCInsLine, ptr %39, i64 %51
  %53 = load i32, ptr %52, align 4, !tbaa !68
  %54 = and i32 %53, 254
  %or.cond.i.i = icmp eq i32 %54, 12
  br i1 %or.cond.i.i, label %55, label %59

55:                                               ; preds = %38
  %56 = trunc i32 %53 to i8
  %57 = or disjoint i8 %56, 2
  store i8 %57, ptr %52, align 4, !tbaa !25
  %58 = getelementptr inbounds nuw i8, ptr %52, i64 1
  store i8 0, ptr %58, align 1, !tbaa !25
  br label %65

59:                                               ; preds = %38
  %60 = and i32 %53, 65280
  %61 = icmp eq i32 %60, 65280
  br i1 %61, label %62, label %jmp_patchtestreg.exit.i

62:                                               ; preds = %59
  %63 = and i32 %42, 65280
  %64 = or disjoint i32 %63, -2147483560
  store i32 %64, ptr %52, align 4, !tbaa !68
  br label %65

65:                                               ; preds = %62, %55
  %reass.sub.i.i = sub i32 %2, %.020.i
  %66 = add i32 %reass.sub.i.i, 32767
  %67 = icmp ugt i32 %66, 65535
  br i1 %67, label %68, label %jmp_patchins.exit.i

68:                                               ; preds = %65
  %69 = getelementptr inbounds nuw i8, ptr %0, i64 8
  %70 = load ptr, ptr %69, align 8, !tbaa !47
  tail call fastcc void @err_syntax(ptr noundef %70, i32 noundef 2399) #13
  unreachable

jmp_patchins.exit.i:                              ; preds = %65
  %71 = load ptr, ptr %37, align 8, !tbaa !67
  br label %jmp_patchins.exit16.i

jmp_patchtestreg.exit.i:                          ; preds = %59
  %reass.sub.i15.i = sub i32 %2, %.020.i
  %72 = add i32 %reass.sub.i15.i, 32767
  %73 = icmp ugt i32 %72, 65535
  br i1 %73, label %74, label %jmp_patchins.exit16.i

74:                                               ; preds = %jmp_patchtestreg.exit.i
  %75 = getelementptr inbounds nuw i8, ptr %0, i64 8
  %76 = load ptr, ptr %75, align 8, !tbaa !47
  tail call fastcc void @err_syntax(ptr noundef %76, i32 noundef 2399) #13
  unreachable

jmp_patchins.exit16.i:                            ; preds = %jmp_patchtestreg.exit.i, %jmp_patchins.exit.i
  %.sink25.i = phi i32 [ %66, %jmp_patchins.exit.i ], [ %72, %jmp_patchtestreg.exit.i ]
  %77 = phi ptr [ %71, %jmp_patchins.exit.i ], [ %39, %jmp_patchtestreg.exit.i ]
  %78 = getelementptr inbounds nuw %struct.BCInsLine, ptr %77, i64 %40
  %79 = trunc nuw i32 %.sink25.i to i16
  %80 = getelementptr inbounds nuw i8, ptr %78, i64 2
  store i16 %79, ptr %80, align 2, !tbaa !70
  %.not26.i = icmp eq i32 %49, -1
  %.not.i = select i1 %46, i1 true, i1 %.not26.i
  br i1 %.not.i, label %jmp_tohere.exit, label %38, !llvm.loop !72

jmp_tohere.exit:                                  ; preds = %jmp_patchins.exit16.i, %36, %jmp_patchins.exit.i.i, %15, %7
  ret void
}